target datalayout = "e-m:e-p270:32:32-p271:32:32-p272:64:64-i64:64-i128:128-f80:128-n8:16:32:64-S128"
target triple = "x86_64-pc-linux-gnu"

%struct._address = type { i32, i32, ptr, ptr }
%struct._packet_info = type { ptr, ptr, i32, i32, %struct.nstime_t, %struct.nstime_t, %struct.nstime_t, i8, ptr, ptr, ptr, ptr, %struct._address, %struct._address, %struct._address, %struct._address, %struct._address, %struct._address, i32, ptr, i8, [3 x i8], %struct.anon, i32, i32, i32, i32, ptr, i8, ptr, ptr, i16, i16, i32, i32, i16, i32, i32, ptr, ptr, ptr, i8, i8, i16, i16, i16, i32, i16, i16, ptr, ptr, ptr, ptr, ptr, i32, i32 }
%struct.nstime_t = type { i64, i32 }
%struct.anon = type { i8, [3 x i8] }

@hf_rpc_authgss_seq = internal global i32 0, align 4
@hf_rpc_authgss_data_length = internal global i32 0, align 4
@.str.123 = private unnamed_addr constant [9 x i8] c"GSS Data\00", align 1
@hf_rpc_authgss_checksum = internal global i32 0, align 4
@ett_rpc_gss_data = internal global i32 0, align 4

; Function Attrs: null_pointer_is_valid sspstrong uwtable
define internal i32 @call_dissect_function(ptr noundef %0, ptr noundef %1, ptr noundef %2, i32 noundef %3, ptr noundef %4, ptr noundef %5, ptr noundef %6) #0 {
  %8 = alloca ptr, align 8
  %9 = alloca ptr, align 8
  %10 = alloca ptr, align 8
  %11 = alloca i32, align 4
  %12 = alloca ptr, align 8
  %13 = alloca ptr, align 8
  %14 = alloca ptr, align 8
  %15 = alloca ptr, align 8
  %16 = alloca ptr, align 8
  store ptr %0, ptr %8, align 8
  store ptr %1, ptr %9, align 8
  store ptr %2, ptr %10, align 8
  store i32 %3, ptr %11, align 4
  store ptr %4, ptr %12, align 8
  store ptr %5, ptr %13, align 8
  store ptr %6, ptr %14, align 8
  call void @llvm.lifetime.start.p0(i64 8, ptr %15) #18
  call void @llvm.lifetime.start.p0(i64 8, ptr %16) #18
  %17 = load ptr, ptr %12, align 8
  %18 = icmp ne ptr %17, null
  br i1 %18, label %19, label %44

19:                                               ; preds = %7
  %20 = load ptr, ptr %9, align 8
  %21 = getelementptr inbounds nuw %struct._packet_info, ptr %20, i32 0, i32 0
  %22 = load ptr, ptr %21, align 8
  store ptr %22, ptr %15, align 8
  %23 = load ptr, ptr %13, align 8
  %24 = icmp ne ptr %23, null
  br i1 %24, label %25, label %29

25:                                               ; preds = %19
  %26 = load ptr, ptr %13, align 8
  %27 = load ptr, ptr %9, align 8
  %28 = getelementptr inbounds nuw %struct._packet_info, ptr %27, i32 0, i32 0
  store ptr %26, ptr %28, align 8
  br label %29

29:                                               ; preds = %25, %19
  %30 = load ptr, ptr %8, align 8
  %31 = load i32, ptr %11, align 4
  %32 = call ptr @tvb_new_subset_remaining(ptr noundef %30, i32 noundef %31)
  store ptr %32, ptr %16, align 8
  %33 = load ptr, ptr %12, align 8
  %34 = load ptr, ptr %16, align 8
  %35 = load ptr, ptr %9, align 8
  %36 = load ptr, ptr %10, align 8
  %37 = load ptr, ptr %14, align 8
  %38 = call i32 @call_dissector_with_data(ptr noundef %33, ptr noundef %34, ptr noundef %35, ptr noundef %36, ptr noundef %37)
  %39 = load i32, ptr %11, align 4
  %40 = add i32 %39, %38
  store i32 %40, ptr %11, align 4
  %41 = load ptr, ptr %15, align 8
  %42 = load ptr, ptr %9, align 8
  %43 = getelementptr inbounds nuw %struct._packet_info, ptr %42, i32 0, i32 0
  store ptr %41, ptr %43, align 8
  br label %44

44:                                               ; preds = %29, %7
  %45 = load i32, ptr %11, align 4
  call void @llvm.lifetime.end.p0(i64 8, ptr %16) #18
  call void @llvm.lifetime.end.p0(i64 8, ptr %15) #18
  ret i32 %45
}

; Function Attrs: null_pointer_is_valid sspstrong uwtable
define i32 @rpc_roundup(i32 noundef %0) #0 {
  %2 = alloca i32, align 4
  %3 = alloca i32, align 4
  %4 = alloca i32, align 4
  store i32 %0, ptr %2, align 4
  call void @llvm.lifetime.start.p0(i64 4, ptr %3) #18
  %5 = load i32, ptr %2, align 4
  %6 = urem i32 %5, 4
  store i32 %6, ptr %3, align 4
  call void @llvm.lifetime.start.p0(i64 4, ptr %4) #18
  %7 = load i32, ptr %2, align 4
  %8 = load i32, ptr %3, align 4
  %9 = icmp ne i32 %8, 0
  br i1 %9, label %10, label %13

10:                                               ; preds = %1
  %11 = load i32, ptr %3, align 4
  %12 = sub i32 4, %11
  br label %14

13:                                               ; preds = %1
  br label %14

14:                                               ; preds = %13, %10
  %15 = phi i32 [ %12, %10 ], [ 0, %13 ]
  %16 = add i32 %7, %15
  store i32 %16, ptr %4, align 4
  %17 = load i32, ptr %4, align 4
  %18 = load i32, ptr %2, align 4
  %19 = icmp ult i32 %17, %18
  br i1 %19, label %20, label %21

20:                                               ; preds = %14
  call void @except_throw(i64 noundef 1, i64 noundef 3, ptr noundef null) #21
  unreachable

21:                                               ; preds = %14
  %22 = load i32, ptr %4, align 4
  call void @llvm.lifetime.end.p0(i64 4, ptr %4) #18
  call void @llvm.lifetime.end.p0(i64 4, ptr %3) #18
  ret i32 %22
}

; Function Attrs: null_pointer_is_valid sspstrong uwtable
define internal i32 @dissect_rpc_authgss_integ_data(ptr noundef %0, ptr noundef %1, ptr noundef %2, i32 noundef %3, ptr noundef %4, ptr noundef %5, ptr noundef %6) #0 {
  %8 = alloca ptr, align 8
  %9 = alloca ptr, align 8
  %10 = alloca ptr, align 8
  %11 = alloca i32, align 4
  %12 = alloca ptr, align 8
  %13 = alloca ptr, align 8
  %14 = alloca ptr, align 8
  %15 = alloca i32, align 4
  %16 = alloca i32, align 4
  %17 = alloca i32, align 4
  %18 = alloca i32, align 4
  %19 = alloca i32, align 4
  %20 = alloca ptr, align 8
  store ptr %0, ptr %8, align 8
  store ptr %1, ptr %9, align 8
  store ptr %2, ptr %10, align 8
  store i32 %3, ptr %11, align 4
  store ptr %4, ptr %12, align 8
  store ptr %5, ptr %13, align 8
  store ptr %6, ptr %14, align 8
  call void @llvm.lifetime.start.p0(i64 4, ptr %15) #18
  call void @llvm.lifetime.start.p0(i64 4, ptr %16) #18
  call void @llvm.lifetime.start.p0(i64 4, ptr %17) #18
  call void @llvm.lifetime.start.p0(i64 4, ptr %18) #18
  call void @llvm.lifetime.start.p0(i64 4, ptr %19) #18
  call void @llvm.lifetime.start.p0(i64 8, ptr %20) #18
  %21 = load ptr, ptr %8, align 8
  %22 = load i32, ptr %11, align 4
  %23 = call i32 @tvb_reported_length_remaining(ptr noundef %21, i32 noundef %22)
  store i32 %23, ptr %15, align 4
  %24 = load ptr, ptr %8, align 8
  %25 = load i32, ptr %11, align 4
  %26 = call i32 @tvb_captured_length_remaining(ptr noundef %24, i32 noundef %25)
  store i32 %26, ptr %16, align 4
  %27 = load ptr, ptr %8, align 8
  %28 = load i32, ptr %11, align 4
  %29 = call i32 @tvb_get_ntohl(ptr noundef %27, i32 noundef %28)
  store i32 %29, ptr %17, align 4
  %30 = load i32, ptr %17, align 4
  %31 = call i32 @rpc_roundup(i32 noundef %30)
  store i32 %31, ptr %18, align 4
  %32 = load ptr, ptr %8, align 8
  %33 = load i32, ptr %11, align 4
  %34 = add i32 %33, 4
  %35 = call i32 @tvb_get_ntohl(ptr noundef %32, i32 noundef %34)
  store i32 %35, ptr %19, align 4
  %36 = load i32, ptr %16, align 4
  %37 = load i32, ptr %15, align 4
  %38 = icmp slt i32 %36, %37
  br i1 %38, label %39, label %42

39:                                               ; preds = %7
  %40 = load i32, ptr %16, align 4
  %41 = sub i32 %40, 4
  store i32 %41, ptr %18, align 4
  br label %42

42:                                               ; preds = %39, %7
  %43 = load ptr, ptr %10, align 8
  %44 = load ptr, ptr %8, align 8
  %45 = load i32, ptr %11, align 4
  %46 = load i32, ptr %18, align 4
  %47 = add i32 4, %46
  %48 = load i32, ptr @ett_rpc_gss_data, align 4
  %49 = call ptr @proto_tree_add_subtree(ptr noundef %43, ptr noundef %44, i32 noundef %45, i32 noundef %47, i32 noundef %48, ptr noundef null, ptr noundef @.str.123)
  store ptr %49, ptr %20, align 8
  %50 = load ptr, ptr %20, align 8
  %51 = load i32, ptr @hf_rpc_authgss_data_length, align 4
  %52 = load ptr, ptr %8, align 8
  %53 = load i32, ptr %11, align 4
  %54 = load i32, ptr %17, align 4
  %55 = call ptr @proto_tree_add_uint(ptr noundef %50, i32 noundef %51, ptr noundef %52, i32 noundef %53, i32 noundef 4, i32 noundef %54)
  %56 = load ptr, ptr %20, align 8
  %57 = load i32, ptr @hf_rpc_authgss_seq, align 4
  %58 = load ptr, ptr %8, align 8
  %59 = load i32, ptr %11, align 4
  %60 = add i32 %59, 4
  %61 = load i32, ptr %19, align 4
  %62 = call ptr @proto_tree_add_uint(ptr noundef %56, i32 noundef %57, ptr noundef %58, i32 noundef %60, i32 noundef 4, i32 noundef %61)
  %63 = load i32, ptr %11, align 4
  %64 = add i32 %63, 8
  store i32 %64, ptr %11, align 4
  %65 = load ptr, ptr %8, align 8
  %66 = load ptr, ptr %9, align 8
  %67 = load ptr, ptr %20, align 8
  %68 = load i32, ptr %11, align 4
  %69 = load ptr, ptr %12, align 8
  %70 = load ptr, ptr %13, align 8
  %71 = load ptr, ptr %14, align 8
  %72 = call i32 @call_dissect_function(ptr noundef %65, ptr noundef %66, ptr noundef %67, i32 noundef %68, ptr noundef %69, ptr noundef %70, ptr noundef %71)
  %73 = load i32, ptr %18, align 4
  %74 = sub i32 %73, 4
  %75 = load i32, ptr %11, align 4
  %76 = add i32 %75, %74
  store i32 %76, ptr %11, align 4
  %77 = load ptr, ptr %8, align 8
  %78 = load ptr, ptr %10, align 8
  %79 = load i32, ptr %11, align 4
  %80 = load ptr, ptr %9, align 8
  %81 = load i32, ptr @hf_rpc_authgss_checksum, align 4
  %82 = call i32 @dissect_rpc_authgss_token(ptr noundef %77, ptr noundef %78, i32 noundef %79, ptr noundef %80, i32 noundef %81)
  store i32 %82, ptr %11, align 4
  %83 = load i32, ptr %11, align 4
  call void @llvm.lifetime.end.p0(i64 8, ptr %20) #18
  call void @llvm.lifetime.end.p0(i64 4, ptr %19) #18
  call void @llvm.lifetime.end.p0(i64 4, ptr %18) #18
  call void @llvm.lifetime.end.p0(i64 4, ptr %17) #18
  call void @llvm.lifetime.end.p0(i64 4, ptr %16) #18
  call void @llvm.lifetime.end.p0(i64 4, ptr %15) #18
  ret i32 %83
}