; Function Attrs: null_pointer_is_valid sspstrong uwtable
define internal fastcc i32 @dissect_rpc_authgss_integ_data(ptr noundef %0, ptr noundef %1, ptr noundef %2, i32 noundef %3, ptr noundef %4, ptr noundef %5, ptr noundef %6) unnamed_addr #0 {
  %8 = tail call i32 @tvb_reported_length_remaining(ptr noundef %0, i32 noundef %3)
  %9 = tail call i32 @tvb_captured_length_remaining(ptr noundef %0, i32 noundef %3)
  %10 = tail call i32 @tvb_get_ntohl(ptr noundef %0, i32 noundef %3)
  %11 = and i32 %10, 3
  %.not.i = icmp eq i32 %11, 0
  %12 = sub nuw nsw i32 4, %11
  %13 = select i1 %.not.i, i32 0, i32 %12
  %14 = add i32 %13, %10
  %15 = icmp ult i32 %14, %10
  br i1 %15, label %16, label %rpc_roundup.exit

16:                                               ; preds = %7
  tail call void @except_throw(i64 noundef 1, i64 noundef 3, ptr noundef null) #19
  unreachable

rpc_roundup.exit:                                 ; preds = %7
  %17 = add i32 %3, 4
  %18 = tail call i32 @tvb_get_ntohl(ptr noundef %0, i32 noundef %17)
  %19 = icmp slt i32 %9, %8
  %20 = add i32 %9, -4
  %spec.select = select i1 %19, i32 %20, i32 %14
  %21 = add i32 %spec.select, 4
  %22 = load i32, ptr @ett_rpc_gss_data, align 4
  %23 = tail call ptr @proto_tree_add_subtree(ptr noundef %2, ptr noundef %0, i32 noundef %3, i32 noundef %21, i32 noundef %22, ptr noundef null, ptr noundef nonnull @.str.123)
  %24 = load i32, ptr @hf_rpc_authgss_data_length, align 4
  %25 = tail call ptr @proto_tree_add_uint(ptr noundef %23, i32 noundef %24, ptr noundef %0, i32 noundef %3, i32 noundef 4, i32 noundef %10)
  %26 = load i32, ptr @hf_rpc_authgss_seq, align 4
  %27 = tail call ptr @proto_tree_add_uint(ptr noundef %23, i32 noundef %26, ptr noundef %0, i32 noundef %17, i32 noundef 4, i32 noundef %18)
  %28 = add i32 %3, 8
  %.not.i39 = icmp eq ptr %4, null
  br i1 %.not.i39, label %call_dissect_function.exit, label %29

29:                                               ; preds = %rpc_roundup.exit
  %30 = load ptr, ptr %1, align 8
  %.not17.i = icmp eq ptr %5, null
  br i1 %.not17.i, label %32, label %31

31:                                               ; preds = %29
  store ptr %5, ptr %1, align 8
  br label %32

32:                                               ; preds = %31, %29
  %33 = tail call ptr @tvb_new_subset_remaining(ptr noundef %0, i32 noundef %28)
  %34 = tail call i32 @call_dissector_with_data(ptr noundef nonnull %4, ptr noundef %33, ptr noundef %1, ptr noundef %23, ptr noundef %6)
  store ptr %30, ptr %1, align 8
  br label %call_dissect_function.exit

call_dissect_function.exit:                       ; preds = %rpc_roundup.exit, %32
  %35 = add i32 %17, %spec.select
  %36 = load i32, ptr @hf_rpc_authgss_checksum, align 4
  %37 = tail call fastcc i32 @dissect_rpc_authgss_token(ptr noundef %0, ptr noundef %2, i32 noundef %35, ptr noundef %1, i32 noundef %36)
  ret i32 %37
}